target datalayout = "e-m:e-p270:32:32-p271:32:32-p272:64:64-i64:64-i128:128-f80:128-n8:16:32:64-S128"
target triple = "x86_64-pc-linux-gnu"

; Function Attrs: nounwind uwtable
define i32 @Wlc_CountDcs(ptr noundef %0) #0 {
  %2 = alloca ptr, align 8
  %3 = alloca i32, align 4
  store ptr %0, ptr %2, align 8, !tbaa !49
  call void @llvm.lifetime.start.p0(i64 4, ptr %3) #12
  store i32 0, ptr %3, align 4, !tbaa !8
  br label %4

4:                                                ; preds = %23, %1
  %5 = load ptr, ptr %2, align 8, !tbaa !49
  %6 = load i8, ptr %5, align 1, !tbaa !59
  %7 = icmp ne i8 %6, 0
  br i1 %7, label %8, label %26

8:                                                ; preds = %4
  %9 = load ptr, ptr %2, align 8, !tbaa !49
  %10 = load i8, ptr %9, align 1, !tbaa !59
  %11 = sext i8 %10 to i32
  %12 = icmp eq i32 %11, 120
  br i1 %12, label %18, label %13

13:                                               ; preds = %8
  %14 = load ptr, ptr %2, align 8, !tbaa !49
  %15 = load i8, ptr %14, align 1, !tbaa !59
  %16 = sext i8 %15 to i32
  %17 = icmp eq i32 %16, 88
  br label %18

18:                                               ; preds = %13, %8
  %19 = phi i1 [ true, %8 ], [ %17, %13 ]
  %20 = zext i1 %19 to i32
  %21 = load i32, ptr %3, align 4, !tbaa !8
  %22 = add nsw i32 %21, %20
  store i32 %22, ptr %3, align 4, !tbaa !8
  br label %23

23:                                               ; preds = %18
  %24 = load ptr, ptr %2, align 8, !tbaa !49
  %25 = getelementptr inbounds nuw i8, ptr %24, i32 1
  store ptr %25, ptr %2, align 8, !tbaa !49
  br label %4, !llvm.loop !60

26:                                               ; preds = %4
  %27 = load i32, ptr %3, align 4, !tbaa !8
  call void @llvm.lifetime.end.p0(i64 4, ptr %3) #12
  ret i32 %27
}