; Function Attrs: nofree norecurse nosync nounwind memory(argmem: read) uwtable
define i32 @Wlc_CountDcs(ptr noundef readonly captures(none) %0) local_unnamed_addr #6 {
  br label %2

2:                                                ; preds = %7, %1
  %.05 = phi ptr [ %0, %1 ], [ %10, %7 ]
  %.0 = phi i32 [ 0, %1 ], [ %9, %7 ]
  %3 = load i8, ptr %.05, align 1, !tbaa !22
  switch i8 %3, label %4 [
    i8 0, label %11
    i8 120, label %7
  ]

4:                                                ; preds = %2
  %5 = icmp eq i8 %3, 88
  %6 = zext i1 %5 to i32
  br label %7

7:                                                ; preds = %2, %4
  %8 = phi i32 [ %6, %4 ], [ 1, %2 ]
  %9 = add nuw nsw i32 %8, %.0
  %10 = getelementptr inbounds nuw i8, ptr %.05, i64 1
  br label %2, !llvm.loop !54

11:                                               ; preds = %2
  ret i32 %.0
}